target datalayout = "e-m:e-p270:32:32-p271:32:32-p272:64:64-i64:64-i128:128-f80:128-n8:16:32:64-S128"
target triple = "x86_64-pc-linux-gnu"

%struct.RangeCoder = type { i32, i32, i32, i32, [256 x i8], [256 x i8], ptr, ptr, ptr, i32 }

; Function Attrs: alwaysinline nounwind willreturn memory(none) uwtable
define internal zeroext i16 @av_bswap16(i16 noundef zeroext %0) #1 {
  %2 = alloca i16, align 2
  store i16 %0, ptr %2, align 2, !tbaa !23
  %3 = load i16, ptr %2, align 2, !tbaa !23
  %4 = zext i16 %3 to i32
  %5 = ashr i32 %4, 8
  %6 = load i16, ptr %2, align 2, !tbaa !23
  %7 = zext i16 %6 to i32
  %8 = shl i32 %7, 8
  %9 = or i32 %5, %8
  %10 = trunc i32 %9 to i16
  store i16 %10, ptr %2, align 2, !tbaa !23
  %11 = load i16, ptr %2, align 2, !tbaa !23
  ret i16 %11
}

; Function Attrs: cold nounwind optsize uwtable
define void @ff_init_range_encoder(ptr noundef %0, ptr noundef %1, i32 noundef %2) #0 {
  %4 = alloca ptr, align 8
  %5 = alloca ptr, align 8
  %6 = alloca i32, align 4
  store ptr %0, ptr %4, align 8, !tbaa !4
  store ptr %1, ptr %5, align 8, !tbaa !9
  store i32 %2, ptr %6, align 4, !tbaa !11
  %7 = load ptr, ptr %5, align 8, !tbaa !9
  %8 = load ptr, ptr %4, align 8, !tbaa !4
  %9 = getelementptr inbounds nuw %struct.RangeCoder, ptr %8, i32 0, i32 7
  store ptr %7, ptr %9, align 8, !tbaa !13
  %10 = load ptr, ptr %4, align 8, !tbaa !4
  %11 = getelementptr inbounds nuw %struct.RangeCoder, ptr %10, i32 0, i32 6
  store ptr %7, ptr %11, align 8, !tbaa !15
  %12 = load ptr, ptr %5, align 8, !tbaa !9
  %13 = load i32, ptr %6, align 4, !tbaa !11
  %14 = sext i32 %13 to i64
  %15 = getelementptr inbounds i8, ptr %12, i64 %14
  %16 = load ptr, ptr %4, align 8, !tbaa !4
  %17 = getelementptr inbounds nuw %struct.RangeCoder, ptr %16, i32 0, i32 8
  store ptr %15, ptr %17, align 8, !tbaa !16
  %18 = load ptr, ptr %4, align 8, !tbaa !4
  %19 = getelementptr inbounds nuw %struct.RangeCoder, ptr %18, i32 0, i32 0
  store i32 0, ptr %19, align 8, !tbaa !17
  %20 = load ptr, ptr %4, align 8, !tbaa !4
  %21 = getelementptr inbounds nuw %struct.RangeCoder, ptr %20, i32 0, i32 1
  store i32 65280, ptr %21, align 4, !tbaa !18
  %22 = load ptr, ptr %4, align 8, !tbaa !4
  %23 = getelementptr inbounds nuw %struct.RangeCoder, ptr %22, i32 0, i32 2
  store i32 0, ptr %23, align 8, !tbaa !19
  %24 = load ptr, ptr %4, align 8, !tbaa !4
  %25 = getelementptr inbounds nuw %struct.RangeCoder, ptr %24, i32 0, i32 3
  store i32 -1, ptr %25, align 4, !tbaa !20
  ret void
}

; Function Attrs: cold nounwind optsize uwtable
define void @ff_init_range_decoder(ptr noundef %0, ptr noundef %1, i32 noundef %2) #0 {
  %4 = alloca ptr, align 8
  %5 = alloca ptr, align 8
  %6 = alloca i32, align 4
  store ptr %0, ptr %4, align 8, !tbaa !4
  store ptr %1, ptr %5, align 8, !tbaa !9
  store i32 %2, ptr %6, align 4, !tbaa !11
  %7 = load ptr, ptr %4, align 8, !tbaa !4
  %8 = load ptr, ptr %5, align 8, !tbaa !9
  %9 = load i32, ptr %6, align 4, !tbaa !11
  call void @ff_init_range_encoder(ptr noundef %7, ptr noundef %8, i32 noundef %9) #6
  %10 = load ptr, ptr %4, align 8, !tbaa !4
  %11 = getelementptr inbounds nuw %struct.RangeCoder, ptr %10, i32 0, i32 7
  %12 = load ptr, ptr %11, align 8, !tbaa !13
  %13 = load i16, ptr %12, align 1, !tbaa !21
  %14 = call zeroext i16 @av_bswap16(i16 noundef zeroext %13) #7
  %15 = zext i16 %14 to i32
  %16 = load ptr, ptr %4, align 8, !tbaa !4
  %17 = getelementptr inbounds nuw %struct.RangeCoder, ptr %16, i32 0, i32 0
  store i32 %15, ptr %17, align 8, !tbaa !17
  %18 = load ptr, ptr %4, align 8, !tbaa !4
  %19 = getelementptr inbounds nuw %struct.RangeCoder, ptr %18, i32 0, i32 7
  %20 = load ptr, ptr %19, align 8, !tbaa !13
  %21 = getelementptr inbounds i8, ptr %20, i64 2
  store ptr %21, ptr %19, align 8, !tbaa !13
  %22 = load ptr, ptr %4, align 8, !tbaa !4
  %23 = getelementptr inbounds nuw %struct.RangeCoder, ptr %22, i32 0, i32 9
  store i32 0, ptr %23, align 8, !tbaa !22
  %24 = load ptr, ptr %4, align 8, !tbaa !4
  %25 = getelementptr inbounds nuw %struct.RangeCoder, ptr %24, i32 0, i32 0
  %26 = load i32, ptr %25, align 8, !tbaa !17
  %27 = icmp sge i32 %26, 65280
  br i1 %27, label %28, label %36

28:                                               ; preds = %3
  %29 = load ptr, ptr %4, align 8, !tbaa !4
  %30 = getelementptr inbounds nuw %struct.RangeCoder, ptr %29, i32 0, i32 0
  store i32 65280, ptr %30, align 8, !tbaa !17
  %31 = load ptr, ptr %4, align 8, !tbaa !4
  %32 = getelementptr inbounds nuw %struct.RangeCoder, ptr %31, i32 0, i32 7
  %33 = load ptr, ptr %32, align 8, !tbaa !13
  %34 = load ptr, ptr %4, align 8, !tbaa !4
  %35 = getelementptr inbounds nuw %struct.RangeCoder, ptr %34, i32 0, i32 8
  store ptr %33, ptr %35, align 8, !tbaa !16
  br label %36

36:                                               ; preds = %28, %3
  ret void
}