; Function Attrs: cold mustprogress nofree norecurse nosync nounwind optsize willreturn memory(argmem: readwrite) uwtable
define void @ff_init_range_decoder(ptr noundef writeonly captures(none) initializes((0, 16), (528, 556)) %0, ptr noundef %1, i32 noundef %2) local_unnamed_addr #1 {
  %4 = getelementptr inbounds nuw i8, ptr %0, i64 536
  store ptr %1, ptr %4, align 8, !tbaa !4
  %5 = getelementptr inbounds nuw i8, ptr %0, i64 528
  store ptr %1, ptr %5, align 8, !tbaa !11
  %6 = sext i32 %2 to i64
  %7 = getelementptr inbounds i8, ptr %1, i64 %6
  %8 = getelementptr inbounds nuw i8, ptr %0, i64 544
  store ptr %7, ptr %8, align 8, !tbaa !12
  store i32 0, ptr %0, align 8, !tbaa !13
  %9 = getelementptr inbounds nuw i8, ptr %0, i64 4
  store i32 65280, ptr %9, align 4, !tbaa !14
  %10 = getelementptr inbounds nuw i8, ptr %0, i64 8
  store i32 0, ptr %10, align 8, !tbaa !15
  %11 = getelementptr inbounds nuw i8, ptr %0, i64 12
  store i32 -1, ptr %11, align 4, !tbaa !16
  %12 = load i16, ptr %1, align 1, !tbaa !17
  %13 = tail call i16 @llvm.bswap.i16(i16 %12)
  %14 = zext i16 %13 to i32
  store i32 %14, ptr %0, align 8, !tbaa !13
  %15 = getelementptr inbounds nuw i8, ptr %1, i64 2
  store ptr %15, ptr %4, align 8, !tbaa !4
  %16 = getelementptr inbounds nuw i8, ptr %0, i64 552
  store i32 0, ptr %16, align 8, !tbaa !18
  %17 = icmp ugt i16 %13, -257
  br i1 %17, label %18, label %19

18:                                               ; preds = %3
  store i32 65280, ptr %0, align 8, !tbaa !13
  store ptr %15, ptr %8, align 8, !tbaa !12
  br label %19

19:                                               ; preds = %18, %3
  ret void
}